target datalayout = "e-m:e-p270:32:32-p271:32:32-p272:64:64-i64:64-i128:128-f80:128-n8:16:32:64-S128"
target triple = "x86_64-pc-linux-gnu"

%struct.ge25519_p3 = type { [5 x i64], [5 x i64], [5 x i64], [5 x i64] }

; Function Attrs: nounwind ssp uwtable
define dso_local i32 @crypto_core_ed25519_sub(ptr noundef nonnull %0, ptr noundef nonnull %1, ptr noundef nonnull %2) #0 {
  %4 = alloca i32, align 4
  %5 = alloca ptr, align 8
  %6 = alloca ptr, align 8
  %7 = alloca ptr, align 8
  %8 = alloca %struct.ge25519_p3, align 8
  %9 = alloca %struct.ge25519_p3, align 8
  %10 = alloca %struct.ge25519_p3, align 8
  %11 = alloca i32, align 4
  store ptr %0, ptr %5, align 8
  store ptr %1, ptr %6, align 8
  store ptr %2, ptr %7, align 8
  call void @llvm.lifetime.start.p0(i64 160, ptr %8) #7
  call void @llvm.lifetime.start.p0(i64 160, ptr %9) #7
  call void @llvm.lifetime.start.p0(i64 160, ptr %10) #7
  %12 = load ptr, ptr %6, align 8
  %13 = call i32 @_sodium_ge25519_frombytes(ptr noundef %8, ptr noundef %12)
  %14 = icmp ne i32 %13, 0
  br i1 %14, label %25, label %15

15:                                               ; preds = %3
  %16 = call i32 @_sodium_ge25519_is_on_curve(ptr noundef %8)
  %17 = icmp eq i32 %16, 0
  br i1 %17, label %25, label %18

18:                                               ; preds = %15
  %19 = load ptr, ptr %7, align 8
  %20 = call i32 @_sodium_ge25519_frombytes(ptr noundef %9, ptr noundef %19)
  %21 = icmp ne i32 %20, 0
  br i1 %21, label %25, label %22

22:                                               ; preds = %18
  %23 = call i32 @_sodium_ge25519_is_on_curve(ptr noundef %9)
  %24 = icmp eq i32 %23, 0
  br i1 %24, label %25, label %26

25:                                               ; preds = %22, %18, %15, %3
  store i32 -1, ptr %4, align 4
  store i32 1, ptr %11, align 4
  br label %28

26:                                               ; preds = %22
  call void @_sodium_ge25519_p3_sub(ptr noundef %10, ptr noundef %8, ptr noundef %9)
  %27 = load ptr, ptr %5, align 8
  call void @_sodium_ge25519_p3_tobytes(ptr noundef %27, ptr noundef %10)
  store i32 0, ptr %4, align 4
  store i32 1, ptr %11, align 4
  br label %28

28:                                               ; preds = %26, %25
  call void @llvm.lifetime.end.p0(i64 160, ptr %10) #7
  call void @llvm.lifetime.end.p0(i64 160, ptr %9) #7
  call void @llvm.lifetime.end.p0(i64 160, ptr %8) #7
  %29 = load i32, ptr %4, align 4
  ret i32 %29
}